; Function Attrs: null_pointer_is_valid sspstrong uwtable
define i64 @dcerpc_get_transport_salt(ptr noundef %0) local_unnamed_addr #0 {
  %2 = getelementptr inbounds nuw i8, ptr %0, i64 408
  %3 = load ptr, ptr %2, align 8
  %4 = load i32, ptr @proto_dcerpc, align 4
  %5 = tail call ptr @p_get_proto_data(ptr noundef %3, ptr noundef %0, i32 noundef %4, i32 noundef 0)
  %6 = icmp eq ptr %5, null
  br i1 %6, label %7, label %dcerpc_get_decode_data.exit

7:                                                ; preds = %1
  %8 = load ptr, ptr %2, align 8
  %9 = tail call noalias dereferenceable_or_null(16) ptr @wmem_alloc0(ptr noundef %8, i64 noundef 16) #18
  %10 = getelementptr inbounds nuw i8, ptr %9, i64 4
  store i32 -1, ptr %10, align 4
  %11 = load ptr, ptr %2, align 8
  %12 = load i32, ptr @proto_dcerpc, align 4
  tail call void @p_add_proto_data(ptr noundef %11, ptr noundef %0, i32 noundef %12, i32 noundef 0, ptr noundef %9)
  br label %dcerpc_get_decode_data.exit

dcerpc_get_decode_data.exit:                      ; preds = %1, %7
  %.0.i = phi ptr [ %9, %7 ], [ %5, %1 ]
  %13 = getelementptr inbounds nuw i8, ptr %.0.i, i64 4
  %14 = load i32, ptr %13, align 4
  %cond = icmp eq i32 %14, 1
  br i1 %cond, label %15, label %18

15:                                               ; preds = %dcerpc_get_decode_data.exit
  %16 = getelementptr inbounds nuw i8, ptr %.0.i, i64 8
  %17 = load i64, ptr %16, align 8
  br label %18

18:                                               ; preds = %dcerpc_get_decode_data.exit, %15
  %.0 = phi i64 [ %17, %15 ], [ 0, %dcerpc_get_decode_data.exit ]
  ret i64 %.0
}